target datalayout = "e-m:e-p270:32:32-p271:32:32-p272:64:64-i64:64-i128:128-f80:128-n8:16:32:64-S128"
target triple = "x86_64-pc-linux-gnu"

@.str.15 = private unnamed_addr constant [94 x i8] c"cli_mpool_strdup(): s == NULL. Please report to https://github.com/Cisco-Talos/clamav/issues\0A\00", align 1
@.str.16 = private unnamed_addr constant [56 x i8] c"cli_mpool_strdup(): Can't allocate memory (%lu bytes).\0A\00", align 1
@.str.19 = private unnamed_addr constant [8 x i8] c" (Clam)\00", align 1
@.str.20 = private unnamed_addr constant [37 x i8] c"cli_mpool_virname: Empty virus name\0A\00", align 1
@.str.21 = private unnamed_addr constant [54 x i8] c"cli_mpool_virname: Can't allocate memory for newname\0A\00", align 1
@.str.22 = private unnamed_addr constant [14 x i8] c"%s.UNOFFICIAL\00", align 1

; Function Attrs: nounwind uwtable
define ptr @cli_mpool_strdup(ptr noundef %0, ptr noundef %1) #0 {
  %3 = alloca ptr, align 8
  %4 = alloca ptr, align 8
  %5 = alloca ptr, align 8
  %6 = alloca ptr, align 8
  %7 = alloca i64, align 8
  store ptr %0, ptr %4, align 8
  store ptr %1, ptr %5, align 8
  %8 = load ptr, ptr %5, align 8
  %9 = icmp eq ptr %8, null
  br i1 %9, label %10, label %11

10:                                               ; preds = %2
  call void (ptr, ...) @cli_errmsg(ptr noundef @.str.15)
  store ptr null, ptr %3, align 8
  br label %28

11:                                               ; preds = %2
  %12 = load ptr, ptr %5, align 8
  %13 = call i64 @strlen(ptr noundef %12) #7
  %14 = add i64 %13, 1
  store i64 %14, ptr %7, align 8
  %15 = load ptr, ptr %4, align 8
  %16 = load i64, ptr %7, align 8
  %17 = call ptr @mpool_malloc(ptr noundef %15, i64 noundef %16)
  store ptr %17, ptr %6, align 8
  %18 = load ptr, ptr %6, align 8
  %19 = icmp ne ptr %18, null
  br i1 %19, label %22, label %20

20:                                               ; preds = %11
  %21 = load i64, ptr %7, align 8
  call void (ptr, ...) @cli_errmsg(ptr noundef @.str.16, i64 noundef %21)
  br label %26

22:                                               ; preds = %11
  %23 = load ptr, ptr %6, align 8
  %24 = load ptr, ptr %5, align 8
  %25 = load i64, ptr %7, align 8
  call void @llvm.memcpy.p0.p0.i64(ptr align 1 %23, ptr align 1 %24, i64 %25, i1 false)
  br label %26

26:                                               ; preds = %22, %20
  %27 = load ptr, ptr %6, align 8
  store ptr %27, ptr %3, align 8
  br label %28

28:                                               ; preds = %26, %10
  %29 = load ptr, ptr %3, align 8
  ret ptr %29
}

; Function Attrs: nounwind uwtable
define ptr @cli_mpool_virname(ptr noundef %0, ptr noundef %1, i32 noundef %2) #0 {
  %4 = alloca ptr, align 8
  %5 = alloca ptr, align 8
  %6 = alloca ptr, align 8
  %7 = alloca i32, align 4
  %8 = alloca ptr, align 8
  %9 = alloca ptr, align 8
  store ptr %0, ptr %5, align 8
  store ptr %1, ptr %6, align 8
  store i32 %2, ptr %7, align 4
  %10 = load ptr, ptr %6, align 8
  %11 = icmp ne ptr %10, null
  br i1 %11, label %13, label %12

12:                                               ; preds = %3
  store ptr null, ptr %4, align 8
  br label %52

13:                                               ; preds = %3
  %14 = load ptr, ptr %6, align 8
  %15 = call ptr @strchr(ptr noundef %14, i32 noundef 32) #7
  store ptr %15, ptr %9, align 8
  %16 = icmp ne ptr %15, null
  br i1 %16, label %17, label %24

17:                                               ; preds = %13
  %18 = load ptr, ptr %9, align 8
  %19 = call ptr @strstr(ptr noundef %18, ptr noundef @.str.19) #7
  store ptr %19, ptr %9, align 8
  %20 = icmp ne ptr %19, null
  br i1 %20, label %21, label %23

21:                                               ; preds = %17
  %22 = load ptr, ptr %9, align 8
  store i8 0, ptr %22, align 1
  br label %23

23:                                               ; preds = %21, %17
  br label %24

24:                                               ; preds = %23, %13
  %25 = load ptr, ptr %6, align 8
  %26 = getelementptr inbounds i8, ptr %25, i64 0
  %27 = load i8, ptr %26, align 1
  %28 = icmp ne i8 %27, 0
  br i1 %28, label %30, label %29

29:                                               ; preds = %24
  call void (ptr, ...) @cli_errmsg(ptr noundef @.str.20)
  store ptr null, ptr %4, align 8
  br label %52

30:                                               ; preds = %24
  %31 = load i32, ptr %7, align 4
  %32 = icmp ne i32 %31, 0
  br i1 %32, label %33, label %37

33:                                               ; preds = %30
  %34 = load ptr, ptr %5, align 8
  %35 = load ptr, ptr %6, align 8
  %36 = call ptr @cli_mpool_strdup(ptr noundef %34, ptr noundef %35)
  store ptr %36, ptr %4, align 8
  br label %52

37:                                               ; preds = %30
  %38 = load ptr, ptr %5, align 8
  %39 = load ptr, ptr %6, align 8
  %40 = call i64 @strlen(ptr noundef %39) #7
  %41 = add i64 %40, 11
  %42 = add i64 %41, 1
  %43 = call ptr @mpool_malloc(ptr noundef %38, i64 noundef %42)
  store ptr %43, ptr %8, align 8
  %44 = load ptr, ptr %8, align 8
  %45 = icmp ne ptr %44, null
  br i1 %45, label %47, label %46

46:                                               ; preds = %37
  call void (ptr, ...) @cli_errmsg(ptr noundef @.str.21)
  store ptr null, ptr %4, align 8
  br label %52

47:                                               ; preds = %37
  %48 = load ptr, ptr %8, align 8
  %49 = load ptr, ptr %6, align 8
  %50 = call i32 (ptr, ptr, ...) @sprintf(ptr noundef %48, ptr noundef @.str.22, ptr noundef %49) #6
  %51 = load ptr, ptr %8, align 8
  store ptr %51, ptr %4, align 8
  br label %52

52:                                               ; preds = %47, %46, %33, %29, %12
  %53 = load ptr, ptr %4, align 8
  ret ptr %53
}