; Function Attrs: nounwind uwtable
define ptr @cli_mpool_virname(ptr noundef %0, ptr noundef %1, i32 noundef %2) local_unnamed_addr #0 {
  %.not = icmp eq ptr %1, null
  br i1 %.not, label %cli_mpool_strdup.exit, label %4

4:                                                ; preds = %3
  %5 = tail call ptr @strchr(ptr noundef nonnull dereferenceable(1) %1, i32 noundef 32) #11
  %.not18 = icmp eq ptr %5, null
  br i1 %.not18, label %9, label %6

6:                                                ; preds = %4
  %7 = tail call ptr @strstr(ptr noundef nonnull dereferenceable(1) %5, ptr noundef nonnull dereferenceable(1) @.str.19) #11
  %.not19 = icmp eq ptr %7, null
  br i1 %.not19, label %9, label %8

8:                                                ; preds = %6
  store i8 0, ptr %7, align 1
  br label %9

9:                                                ; preds = %6, %8, %4
  %10 = load i8, ptr %1, align 1
  %.not20 = icmp eq i8 %10, 0
  br i1 %.not20, label %11, label %12

11:                                               ; preds = %9
  tail call void (ptr, ...) @cli_errmsg(ptr noundef nonnull @.str.20) #10
  br label %cli_mpool_strdup.exit

12:                                               ; preds = %9
  %.not21 = icmp eq i32 %2, 0
  %13 = tail call i64 @strlen(ptr noundef nonnull dereferenceable(1) %1) #11
  br i1 %.not21, label %19, label %14

14:                                               ; preds = %12
  %15 = add i64 %13, 1
  %16 = tail call ptr @mpool_malloc(ptr noundef %0, i64 noundef %15)
  %.not.i = icmp eq ptr %16, null
  br i1 %.not.i, label %17, label %18

17:                                               ; preds = %14
  tail call void (ptr, ...) @cli_errmsg(ptr noundef nonnull @.str.16, i64 noundef %15) #10
  br label %cli_mpool_strdup.exit

18:                                               ; preds = %14
  tail call void @llvm.memcpy.p0.p0.i64(ptr nonnull align 1 %16, ptr nonnull align 1 %1, i64 %15, i1 false)
  br label %cli_mpool_strdup.exit

19:                                               ; preds = %12
  %20 = add i64 %13, 12
  %21 = tail call ptr @mpool_malloc(ptr noundef %0, i64 noundef %20)
  %.not22 = icmp eq ptr %21, null
  br i1 %.not22, label %22, label %23

22:                                               ; preds = %19
  tail call void (ptr, ...) @cli_errmsg(ptr noundef nonnull @.str.21) #10
  br label %cli_mpool_strdup.exit

23:                                               ; preds = %19
  %24 = tail call i32 (ptr, ptr, ...) @sprintf(ptr noundef nonnull dereferenceable(1) %21, ptr noundef nonnull dereferenceable(1) @.str.22, ptr noundef nonnull %1) #10
  br label %cli_mpool_strdup.exit

cli_mpool_strdup.exit:                            ; preds = %18, %17, %3, %23, %22, %11
  %.0 = phi ptr [ %21, %23 ], [ null, %22 ], [ null, %11 ], [ null, %3 ], [ %16, %18 ], [ null, %17 ]
  ret ptr %.0
}